; Function Attrs: cold nounwind optsize uwtable
define internal noundef i32 @zero12v_decode_init(ptr noundef initializes((136, 140), (652, 656)) %0) #0 {
  %2 = getelementptr inbounds nuw i8, ptr %0, i64 136
  store i32 47, ptr %2, align 8, !tbaa !4
  %3 = getelementptr inbounds nuw i8, ptr %0, i64 652
  store i32 10, ptr %3, align 4, !tbaa !27
  %4 = getelementptr inbounds nuw i8, ptr %0, i64 28
  %5 = load i32, ptr %4, align 4, !tbaa !28
  %6 = icmp eq i32 %5, 1983000929
  br i1 %6, label %7, label %8

7:                                                ; preds = %1
  tail call void (ptr, ptr, ...) @avpriv_request_sample(ptr noundef nonnull %0, ptr noundef nonnull @.str.2) #5
  br label %8

8:                                                ; preds = %7, %1
  ret i32 0
}